; Function Attrs: mustprogress noinline uwtable
define hidden noundef ptr @_ZN6google8protobuf5Arena18CreateMaybeMessageIN12opencv_caffe16V0LayerParameterEJEEEPT_PS1_DpOT0_(ptr noundef %0) local_unnamed_addr #20 align 2 personality ptr @__gxx_personality_v0 {
  %2 = icmp eq ptr %0, null
  br i1 %2, label %_ZN6google8protobuf5Arena14InternalHelperIN12opencv_caffe16V0LayerParameterEE3NewEv.exit, label %9

_ZN6google8protobuf5Arena14InternalHelperIN12opencv_caffe16V0LayerParameterEE3NewEv.exit: ; preds = %1
  %3 = tail call noalias noundef nonnull dereferenceable(256) ptr @_Znwm(i64 noundef 256) #28
  %4 = getelementptr inbounds nuw i8, ptr %3, i64 8
  store i64 0, ptr %4, align 8, !tbaa !8
  store ptr getelementptr inbounds nuw inrange(-16, 152) (i8, ptr @_ZTVN12opencv_caffe16V0LayerParameterE, i64 16), ptr %3, align 8, !tbaa !11
  %5 = getelementptr inbounds nuw i8, ptr %3, i64 16
  store i64 0, ptr %5, align 8
  %6 = getelementptr inbounds nuw i8, ptr %3, i64 24
  store i32 0, ptr %6, align 4, !tbaa !18
  %7 = getelementptr inbounds nuw i8, ptr %3, i64 32
  %8 = getelementptr inbounds nuw i8, ptr %3, i64 88
  tail call void @llvm.memset.p0.i64(ptr noundef nonnull align 8 dereferenceable(56) %7, i8 0, i64 56, i1 false)
  store ptr @_ZN6google8protobuf8internal26fixed_address_empty_stringB5cxx11E, ptr %8, align 8, !tbaa !70
  br label %_ZN6google8protobuf5Arena21CreateMessageInternalIN12opencv_caffe16V0LayerParameterEEEPT_PS1_.exit

9:                                                ; preds = %1
  %10 = tail call noundef ptr @_ZN6google8protobuf5Arena23AllocateAlignedWithHookEmPKSt9type_info(ptr noundef nonnull align 8 dereferenceable(32) %0, i64 noundef 256, ptr noundef nonnull @_ZTIN12opencv_caffe16V0LayerParameterE)
  %11 = getelementptr inbounds nuw i8, ptr %10, i64 8
  %12 = ptrtoint ptr %0 to i64
  store i64 %12, ptr %11, align 8, !tbaa !8
  store ptr getelementptr inbounds nuw inrange(-16, 152) (i8, ptr @_ZTVN12opencv_caffe16V0LayerParameterE, i64 16), ptr %10, align 8, !tbaa !11
  %13 = getelementptr inbounds nuw i8, ptr %10, i64 16
  store i64 0, ptr %13, align 8
  %14 = getelementptr inbounds nuw i8, ptr %10, i64 24
  store i32 0, ptr %14, align 4, !tbaa !18
  %15 = getelementptr inbounds nuw i8, ptr %10, i64 32
  store ptr %0, ptr %15, align 8, !tbaa !88
  %16 = getelementptr inbounds nuw i8, ptr %10, i64 40
  %17 = getelementptr inbounds nuw i8, ptr %10, i64 64
  tail call void @llvm.memset.p0.i64(ptr noundef nonnull align 8 dereferenceable(24) %16, i8 0, i64 24, i1 false)
  store ptr %0, ptr %17, align 8, !tbaa !64
  %18 = getelementptr inbounds nuw i8, ptr %10, i64 72
  store i32 0, ptr %18, align 8, !tbaa !65
  %19 = getelementptr inbounds nuw i8, ptr %10, i64 76
  store i32 0, ptr %19, align 4, !tbaa !66
  %20 = getelementptr inbounds nuw i8, ptr %10, i64 80
  store ptr %0, ptr %20, align 8, !tbaa !64
  %21 = getelementptr inbounds nuw i8, ptr %10, i64 88
  store ptr @_ZN6google8protobuf8internal26fixed_address_empty_stringB5cxx11E, ptr %21, align 8, !tbaa !70
  br label %_ZN6google8protobuf5Arena21CreateMessageInternalIN12opencv_caffe16V0LayerParameterEEEPT_PS1_.exit

_ZN6google8protobuf5Arena21CreateMessageInternalIN12opencv_caffe16V0LayerParameterEEEPT_PS1_.exit: ; preds = %_ZN6google8protobuf5Arena14InternalHelperIN12opencv_caffe16V0LayerParameterEE3NewEv.exit, %9
  %.sink21 = phi ptr [ %3, %_ZN6google8protobuf5Arena14InternalHelperIN12opencv_caffe16V0LayerParameterEE3NewEv.exit ], [ %10, %9 ]
  %22 = getelementptr inbounds nuw i8, ptr %.sink21, i64 96
  store ptr @_ZN6google8protobuf8internal26fixed_address_empty_stringB5cxx11E, ptr %22, align 8, !tbaa !70
  %23 = getelementptr inbounds nuw i8, ptr %.sink21, i64 104
  store ptr @_ZN6google8protobuf8internal26fixed_address_empty_stringB5cxx11E, ptr %23, align 8, !tbaa !70
  %24 = getelementptr inbounds nuw i8, ptr %.sink21, i64 112
  store ptr @_ZN6google8protobuf8internal26fixed_address_empty_stringB5cxx11E, ptr %24, align 8, !tbaa !70
  %25 = getelementptr inbounds nuw i8, ptr %.sink21, i64 120
  %26 = getelementptr inbounds nuw i8, ptr %.sink21, i64 204
  tail call void @llvm.memset.p0.i64(ptr noundef nonnull align 8 dereferenceable(84) %25, i8 0, i64 84, i1 false)
  store i32 1, ptr %26, align 4, !tbaa !869
  %27 = getelementptr inbounds nuw i8, ptr %.sink21, i64 208
  store i8 1, ptr %27, align 8, !tbaa !870
  %28 = getelementptr inbounds nuw i8, ptr %.sink21, i64 212
  store i32 1, ptr %28, align 4, !tbaa !871
  %29 = getelementptr inbounds nuw i8, ptr %.sink21, i64 216
  store i32 1, ptr %29, align 8, !tbaa !872
  %30 = getelementptr inbounds nuw i8, ptr %.sink21, i64 220
  store float 5.000000e-01, ptr %30, align 4, !tbaa !873
  %31 = getelementptr inbounds nuw i8, ptr %.sink21, i64 224
  store i32 5, ptr %31, align 8, !tbaa !874
  %32 = getelementptr inbounds nuw i8, ptr %.sink21, i64 228
  store float 1.000000e+00, ptr %32, align 4, !tbaa !875
  %33 = getelementptr inbounds nuw i8, ptr %.sink21, i64 232
  store float 7.500000e-01, ptr %33, align 8, !tbaa !876
  %34 = getelementptr inbounds nuw i8, ptr %.sink21, i64 236
  store float 1.000000e+00, ptr %34, align 4, !tbaa !877
  %35 = getelementptr inbounds nuw i8, ptr %.sink21, i64 240
  store float 1.000000e+00, ptr %35, align 8, !tbaa !878
  %36 = getelementptr inbounds nuw i8, ptr %.sink21, i64 244
  store float 5.000000e-01, ptr %36, align 4, !tbaa !879
  %37 = getelementptr inbounds nuw i8, ptr %.sink21, i64 248
  store float 5.000000e-01, ptr %37, align 8, !tbaa !880
  %38 = getelementptr inbounds nuw i8, ptr %.sink21, i64 252
  store float 2.500000e-01, ptr %38, align 4, !tbaa !881
  ret ptr %.sink21
}